; Function Attrs: mustprogress nounwind uwtable
define void @_ZN7glslang17TSymbolTableLevel8readOnlyEv(ptr noundef nonnull readonly align 8 dereferenceable(101) %0) local_unnamed_addr #0 align 2 {
  %2 = getelementptr inbounds nuw i8, ptr %0, i64 32
  %3 = load ptr, ptr %2, align 8
  %4 = getelementptr inbounds nuw i8, ptr %0, i64 16
  %.not4 = icmp eq ptr %3, %4
  br i1 %.not4, label %._crit_edge, label %.lr.ph

.lr.ph:                                           ; preds = %1, %.lr.ph
  %.sroa.01.05 = phi ptr [ %10, %.lr.ph ], [ %3, %1 ]
  %5 = getelementptr inbounds nuw i8, ptr %.sroa.01.05, i64 72
  %6 = load ptr, ptr %5, align 8
  %7 = load ptr, ptr %6, align 8
  %8 = getelementptr inbounds nuw i8, ptr %7, i64 168
  %9 = load ptr, ptr %8, align 8
  tail call void %9(ptr noundef nonnull align 8 dereferenceable(33) %6) #18
  %10 = tail call noundef ptr @_ZSt18_Rb_tree_incrementPSt18_Rb_tree_node_base(ptr noundef %.sroa.01.05) #20
  %.not = icmp eq ptr %10, %4
  br i1 %.not, label %._crit_edge, label %.lr.ph, !llvm.loop !46

._crit_edge:                                      ; preds = %.lr.ph, %1
  ret void
}